target datalayout = "e-m:e-p270:32:32-p271:32:32-p272:64:64-i64:64-i128:128-f80:128-n8:16:32:64-S128"
target triple = "x86_64-pc-linux-gnu"

%"class.ncnn::Mat" = type { ptr, ptr, i64, i32, ptr, i32, i32, i32, i32, i32, i64 }
%struct.__ncnn_layer_t = type { ptr, ptr, ptr, ptr, ptr, ptr, ptr, ptr, ptr }

; Function Attrs: mustprogress uwtable
define internal noundef i32 @_ZL22__ncnn_layer_forward_1P14__ncnn_layer_tP12__ncnn_mat_tPS2_P15__ncnn_option_t(ptr noundef %0, ptr noundef %1, ptr noundef %2, ptr noundef %3) #1 personality ptr @__gxx_personality_v0 {
  %5 = alloca ptr, align 8
  %6 = alloca i32, align 4
  %7 = alloca i32, align 4
  %8 = alloca ptr, align 8
  %9 = alloca ptr, align 8
  %10 = alloca ptr, align 8
  %11 = alloca i32, align 4
  %12 = alloca i32, align 4
  %13 = alloca ptr, align 8
  %14 = alloca i32, align 4
  %15 = alloca i32, align 4
  %16 = alloca ptr, align 8
  %17 = alloca ptr, align 8
  %18 = alloca ptr, align 8
  %19 = alloca ptr, align 8
  %20 = alloca ptr, align 8
  %21 = alloca ptr, align 8
  %22 = alloca ptr, align 8
  %23 = alloca ptr, align 8
  %24 = alloca ptr, align 8
  %25 = alloca %"class.ncnn::Mat", align 8
  %26 = alloca i32, align 4
  %27 = alloca ptr, align 8
  %28 = alloca i32, align 4
  store ptr %0, ptr %21, align 8
  store ptr %1, ptr %22, align 8
  store ptr %2, ptr %23, align 8
  store ptr %3, ptr %24, align 8
  store ptr %25, ptr %20, align 8
  %29 = load ptr, ptr %20, align 8
  store ptr null, ptr %29, align 8
  %30 = getelementptr inbounds nuw %"class.ncnn::Mat", ptr %29, i32 0, i32 1
  store ptr null, ptr %30, align 8
  %31 = getelementptr inbounds nuw %"class.ncnn::Mat", ptr %29, i32 0, i32 2
  store i64 0, ptr %31, align 8
  %32 = getelementptr inbounds nuw %"class.ncnn::Mat", ptr %29, i32 0, i32 3
  store i32 0, ptr %32, align 8
  %33 = getelementptr inbounds nuw %"class.ncnn::Mat", ptr %29, i32 0, i32 4
  store ptr null, ptr %33, align 8
  %34 = getelementptr inbounds nuw %"class.ncnn::Mat", ptr %29, i32 0, i32 5
  store i32 0, ptr %34, align 8
  %35 = getelementptr inbounds nuw %"class.ncnn::Mat", ptr %29, i32 0, i32 6
  store i32 0, ptr %35, align 4
  %36 = getelementptr inbounds nuw %"class.ncnn::Mat", ptr %29, i32 0, i32 7
  store i32 0, ptr %36, align 8
  %37 = getelementptr inbounds nuw %"class.ncnn::Mat", ptr %29, i32 0, i32 8
  store i32 0, ptr %37, align 4
  %38 = getelementptr inbounds nuw %"class.ncnn::Mat", ptr %29, i32 0, i32 9
  store i32 0, ptr %38, align 8
  %39 = getelementptr inbounds nuw %"class.ncnn::Mat", ptr %29, i32 0, i32 10
  store i64 0, ptr %39, align 8
  %40 = load ptr, ptr %21, align 8
  %41 = getelementptr inbounds nuw %struct.__ncnn_layer_t, ptr %40, i32 0, i32 0
  %42 = load ptr, ptr %41, align 8
  %43 = load ptr, ptr %22, align 8
  %44 = load ptr, ptr %24, align 8
  %45 = load ptr, ptr %42, align 8
  %46 = getelementptr inbounds ptr, ptr %45, i64 7
  %47 = load ptr, ptr %46, align 8
  %48 = invoke noundef i32 %47(ptr noundef nonnull align 8 dereferenceable(208) %42, ptr noundef nonnull align 8 dereferenceable(72) %43, ptr noundef nonnull align 8 dereferenceable(72) %25, ptr noundef nonnull align 8 dereferenceable(64) %44)
          to label %49 unwind label %154

49:                                               ; preds = %4
  store i32 %48, ptr %26, align 4
  %50 = invoke noalias noundef nonnull ptr @_Znwm(i64 noundef 72) #13
          to label %51 unwind label %154

51:                                               ; preds = %49
  store ptr %50, ptr %16, align 8
  store ptr %25, ptr %17, align 8
  %52 = load ptr, ptr %16, align 8
  %53 = load ptr, ptr %17, align 8
  %54 = load ptr, ptr %53, align 8
  store ptr %54, ptr %52, align 8
  %55 = getelementptr inbounds nuw %"class.ncnn::Mat", ptr %52, i32 0, i32 1
  %56 = load ptr, ptr %17, align 8
  %57 = getelementptr inbounds nuw %"class.ncnn::Mat", ptr %56, i32 0, i32 1
  %58 = load ptr, ptr %57, align 8
  store ptr %58, ptr %55, align 8
  %59 = getelementptr inbounds nuw %"class.ncnn::Mat", ptr %52, i32 0, i32 2
  %60 = load ptr, ptr %17, align 8
  %61 = getelementptr inbounds nuw %"class.ncnn::Mat", ptr %60, i32 0, i32 2
  %62 = load i64, ptr %61, align 8
  store i64 %62, ptr %59, align 8
  %63 = getelementptr inbounds nuw %"class.ncnn::Mat", ptr %52, i32 0, i32 3
  %64 = load ptr, ptr %17, align 8
  %65 = getelementptr inbounds nuw %"class.ncnn::Mat", ptr %64, i32 0, i32 3
  %66 = load i32, ptr %65, align 8
  store i32 %66, ptr %63, align 8
  %67 = getelementptr inbounds nuw %"class.ncnn::Mat", ptr %52, i32 0, i32 4
  %68 = load ptr, ptr %17, align 8
  %69 = getelementptr inbounds nuw %"class.ncnn::Mat", ptr %68, i32 0, i32 4
  %70 = load ptr, ptr %69, align 8
  store ptr %70, ptr %67, align 8
  %71 = getelementptr inbounds nuw %"class.ncnn::Mat", ptr %52, i32 0, i32 5
  %72 = load ptr, ptr %17, align 8
  %73 = getelementptr inbounds nuw %"class.ncnn::Mat", ptr %72, i32 0, i32 5
  %74 = load i32, ptr %73, align 8
  store i32 %74, ptr %71, align 8
  %75 = getelementptr inbounds nuw %"class.ncnn::Mat", ptr %52, i32 0, i32 6
  %76 = load ptr, ptr %17, align 8
  %77 = getelementptr inbounds nuw %"class.ncnn::Mat", ptr %76, i32 0, i32 6
  %78 = load i32, ptr %77, align 4
  store i32 %78, ptr %75, align 4
  %79 = getelementptr inbounds nuw %"class.ncnn::Mat", ptr %52, i32 0, i32 7
  %80 = load ptr, ptr %17, align 8
  %81 = getelementptr inbounds nuw %"class.ncnn::Mat", ptr %80, i32 0, i32 7
  %82 = load i32, ptr %81, align 8
  store i32 %82, ptr %79, align 8
  %83 = getelementptr inbounds nuw %"class.ncnn::Mat", ptr %52, i32 0, i32 8
  %84 = load ptr, ptr %17, align 8
  %85 = getelementptr inbounds nuw %"class.ncnn::Mat", ptr %84, i32 0, i32 8
  %86 = load i32, ptr %85, align 4
  store i32 %86, ptr %83, align 4
  %87 = getelementptr inbounds nuw %"class.ncnn::Mat", ptr %52, i32 0, i32 9
  %88 = load ptr, ptr %17, align 8
  %89 = getelementptr inbounds nuw %"class.ncnn::Mat", ptr %88, i32 0, i32 9
  %90 = load i32, ptr %89, align 8
  store i32 %90, ptr %87, align 8
  %91 = getelementptr inbounds nuw %"class.ncnn::Mat", ptr %52, i32 0, i32 10
  %92 = load ptr, ptr %17, align 8
  %93 = getelementptr inbounds nuw %"class.ncnn::Mat", ptr %92, i32 0, i32 10
  %94 = load i64, ptr %93, align 8
  store i64 %94, ptr %91, align 8
  store ptr %52, ptr %5, align 8
  %95 = load ptr, ptr %5, align 8
  %96 = getelementptr inbounds nuw %"class.ncnn::Mat", ptr %95, i32 0, i32 1
  %97 = load ptr, ptr %96, align 8
  %98 = icmp ne ptr %97, null
  br i1 %98, label %99, label %104

99:                                               ; preds = %51
  %100 = getelementptr inbounds nuw %"class.ncnn::Mat", ptr %95, i32 0, i32 1
  %101 = load ptr, ptr %100, align 8
  store i32 1, ptr %6, align 4
  %102 = load i32, ptr %6, align 4
  %103 = atomicrmw add ptr %101, i32 %102 acq_rel, align 4
  store i32 %103, ptr %7, align 4
  br label %104

104:                                              ; preds = %99, %51
  br label %105

105:                                              ; preds = %104
  %106 = load ptr, ptr %23, align 8
  store ptr %50, ptr %106, align 8
  %107 = load i32, ptr %26, align 4
  store ptr %25, ptr %19, align 8
  %108 = load ptr, ptr %19, align 8
  store ptr %108, ptr %10, align 8
  %109 = load ptr, ptr %10, align 8
  %110 = getelementptr inbounds nuw %"class.ncnn::Mat", ptr %109, i32 0, i32 1
  %111 = load ptr, ptr %110, align 8
  %112 = icmp ne ptr %111, null
  br i1 %112, label %113, label %140

113:                                              ; preds = %105
  %114 = getelementptr inbounds nuw %"class.ncnn::Mat", ptr %109, i32 0, i32 1
  %115 = load ptr, ptr %114, align 8
  store i32 -1, ptr %11, align 4
  %116 = load i32, ptr %11, align 4
  %117 = atomicrmw add ptr %115, i32 %116 acq_rel, align 4
  store i32 %117, ptr %12, align 4
  %118 = load i32, ptr %12, align 4
  %119 = icmp eq i32 %118, 1
  br i1 %119, label %120, label %140

120:                                              ; preds = %113
  %121 = getelementptr inbounds nuw %"class.ncnn::Mat", ptr %109, i32 0, i32 4
  %122 = load ptr, ptr %121, align 8
  %123 = icmp ne ptr %122, null
  br i1 %123, label %124, label %132

124:                                              ; preds = %120
  %125 = getelementptr inbounds nuw %"class.ncnn::Mat", ptr %109, i32 0, i32 4
  %126 = load ptr, ptr %125, align 8
  %127 = load ptr, ptr %109, align 8
  %128 = load ptr, ptr %126, align 8
  %129 = getelementptr inbounds ptr, ptr %128, i64 3
  %130 = load ptr, ptr %129, align 8
  invoke void %130(ptr noundef nonnull align 8 dereferenceable(8) %126, ptr noundef %127)
          to label %131 unwind label %150

131:                                              ; preds = %124
  br label %139

132:                                              ; preds = %120
  %133 = load ptr, ptr %109, align 8
  store ptr %133, ptr %9, align 8
  %134 = load ptr, ptr %9, align 8
  %135 = icmp ne ptr %134, null
  br i1 %135, label %136, label %138

136:                                              ; preds = %132
  %137 = load ptr, ptr %9, align 8
  call void @free(ptr noundef %137) #15
  br label %138

138:                                              ; preds = %136, %132
  br label %139

139:                                              ; preds = %138, %131
  br label %140

140:                                              ; preds = %139, %113, %105
  store ptr null, ptr %109, align 8
  %141 = getelementptr inbounds nuw %"class.ncnn::Mat", ptr %109, i32 0, i32 2
  store i64 0, ptr %141, align 8
  %142 = getelementptr inbounds nuw %"class.ncnn::Mat", ptr %109, i32 0, i32 3
  store i32 0, ptr %142, align 8
  %143 = getelementptr inbounds nuw %"class.ncnn::Mat", ptr %109, i32 0, i32 5
  store i32 0, ptr %143, align 8
  %144 = getelementptr inbounds nuw %"class.ncnn::Mat", ptr %109, i32 0, i32 6
  store i32 0, ptr %144, align 4
  %145 = getelementptr inbounds nuw %"class.ncnn::Mat", ptr %109, i32 0, i32 7
  store i32 0, ptr %145, align 8
  %146 = getelementptr inbounds nuw %"class.ncnn::Mat", ptr %109, i32 0, i32 8
  store i32 0, ptr %146, align 4
  %147 = getelementptr inbounds nuw %"class.ncnn::Mat", ptr %109, i32 0, i32 9
  store i32 0, ptr %147, align 8
  %148 = getelementptr inbounds nuw %"class.ncnn::Mat", ptr %109, i32 0, i32 10
  store i64 0, ptr %148, align 8
  %149 = getelementptr inbounds nuw %"class.ncnn::Mat", ptr %109, i32 0, i32 1
  store ptr null, ptr %149, align 8
  br label %153

150:                                              ; preds = %124
  %151 = landingpad { ptr, i32 }
          catch ptr null
  %152 = extractvalue { ptr, i32 } %151, 0
  call void @__clang_call_terminate(ptr %152) #16
  unreachable

153:                                              ; preds = %140
  ret i32 %107

154:                                              ; preds = %49, %4
  %155 = landingpad { ptr, i32 }
          cleanup
  %156 = extractvalue { ptr, i32 } %155, 0
  store ptr %156, ptr %27, align 8
  %157 = extractvalue { ptr, i32 } %155, 1
  store i32 %157, ptr %28, align 4
  br label %162

158:                                              ; No predecessors!
  %159 = landingpad { ptr, i32 }
          cleanup
  %160 = extractvalue { ptr, i32 } %159, 0
  store ptr %160, ptr %27, align 8
  %161 = extractvalue { ptr, i32 } %159, 1
  store i32 %161, ptr %28, align 4
  call void @_ZdlPvm(ptr noundef %50, i64 noundef 72) #14
  br label %162

162:                                              ; preds = %158, %154
  store ptr %25, ptr %18, align 8
  %163 = load ptr, ptr %18, align 8
  store ptr %163, ptr %13, align 8
  %164 = load ptr, ptr %13, align 8
  %165 = getelementptr inbounds nuw %"class.ncnn::Mat", ptr %164, i32 0, i32 1
  %166 = load ptr, ptr %165, align 8
  %167 = icmp ne ptr %166, null
  br i1 %167, label %168, label %195

168:                                              ; preds = %162
  %169 = getelementptr inbounds nuw %"class.ncnn::Mat", ptr %164, i32 0, i32 1
  %170 = load ptr, ptr %169, align 8
  store i32 -1, ptr %14, align 4
  %171 = load i32, ptr %14, align 4
  %172 = atomicrmw add ptr %170, i32 %171 acq_rel, align 4
  store i32 %172, ptr %15, align 4
  %173 = load i32, ptr %15, align 4
  %174 = icmp eq i32 %173, 1
  br i1 %174, label %175, label %195

175:                                              ; preds = %168
  %176 = getelementptr inbounds nuw %"class.ncnn::Mat", ptr %164, i32 0, i32 4
  %177 = load ptr, ptr %176, align 8
  %178 = icmp ne ptr %177, null
  br i1 %178, label %179, label %187

179:                                              ; preds = %175
  %180 = getelementptr inbounds nuw %"class.ncnn::Mat", ptr %164, i32 0, i32 4
  %181 = load ptr, ptr %180, align 8
  %182 = load ptr, ptr %164, align 8
  %183 = load ptr, ptr %181, align 8
  %184 = getelementptr inbounds ptr, ptr %183, i64 3
  %185 = load ptr, ptr %184, align 8
  invoke void %185(ptr noundef nonnull align 8 dereferenceable(8) %181, ptr noundef %182)
          to label %186 unwind label %205

186:                                              ; preds = %179
  br label %194

187:                                              ; preds = %175
  %188 = load ptr, ptr %164, align 8
  store ptr %188, ptr %8, align 8
  %189 = load ptr, ptr %8, align 8
  %190 = icmp ne ptr %189, null
  br i1 %190, label %191, label %193

191:                                              ; preds = %187
  %192 = load ptr, ptr %8, align 8
  call void @free(ptr noundef %192) #15
  br label %193

193:                                              ; preds = %191, %187
  br label %194

194:                                              ; preds = %193, %186
  br label %195

195:                                              ; preds = %194, %168, %162
  store ptr null, ptr %164, align 8
  %196 = getelementptr inbounds nuw %"class.ncnn::Mat", ptr %164, i32 0, i32 2
  store i64 0, ptr %196, align 8
  %197 = getelementptr inbounds nuw %"class.ncnn::Mat", ptr %164, i32 0, i32 3
  store i32 0, ptr %197, align 8
  %198 = getelementptr inbounds nuw %"class.ncnn::Mat", ptr %164, i32 0, i32 5
  store i32 0, ptr %198, align 8
  %199 = getelementptr inbounds nuw %"class.ncnn::Mat", ptr %164, i32 0, i32 6
  store i32 0, ptr %199, align 4
  %200 = getelementptr inbounds nuw %"class.ncnn::Mat", ptr %164, i32 0, i32 7
  store i32 0, ptr %200, align 8
  %201 = getelementptr inbounds nuw %"class.ncnn::Mat", ptr %164, i32 0, i32 8
  store i32 0, ptr %201, align 4
  %202 = getelementptr inbounds nuw %"class.ncnn::Mat", ptr %164, i32 0, i32 9
  store i32 0, ptr %202, align 8
  %203 = getelementptr inbounds nuw %"class.ncnn::Mat", ptr %164, i32 0, i32 10
  store i64 0, ptr %203, align 8
  %204 = getelementptr inbounds nuw %"class.ncnn::Mat", ptr %164, i32 0, i32 1
  store ptr null, ptr %204, align 8
  br label %208

205:                                              ; preds = %179
  %206 = landingpad { ptr, i32 }
          catch ptr null
  %207 = extractvalue { ptr, i32 } %206, 0
  call void @__clang_call_terminate(ptr %207) #16
  unreachable

208:                                              ; preds = %195
  br label %209

209:                                              ; preds = %208
  %210 = load ptr, ptr %27, align 8
  %211 = load i32, ptr %28, align 4
  %212 = insertvalue { ptr, i32 } poison, ptr %210, 0
  %213 = insertvalue { ptr, i32 } %212, i32 %211, 1
  resume { ptr, i32 } %213
}