; Function Attrs: mustprogress uwtable
define internal noundef i32 @_ZL22__ncnn_layer_forward_1P14__ncnn_layer_tP12__ncnn_mat_tPS2_P15__ncnn_option_t(ptr nocapture noundef readonly %0, ptr noundef %1, ptr nocapture noundef writeonly %2, ptr noundef %3) #1 personality ptr @__gxx_personality_v0 {
  %5 = alloca %"class.ncnn::Mat", align 8
  %6 = getelementptr inbounds nuw i8, ptr %5, i64 8
  %7 = getelementptr inbounds nuw i8, ptr %5, i64 16
  %8 = getelementptr inbounds nuw i8, ptr %5, i64 24
  %9 = getelementptr inbounds nuw i8, ptr %5, i64 32
  %10 = getelementptr inbounds nuw i8, ptr %5, i64 40
  %11 = getelementptr inbounds nuw i8, ptr %5, i64 44
  %12 = getelementptr inbounds nuw i8, ptr %5, i64 48
  %13 = getelementptr inbounds nuw i8, ptr %5, i64 52
  %14 = getelementptr inbounds nuw i8, ptr %5, i64 56
  %15 = getelementptr inbounds nuw i8, ptr %5, i64 64
  store i64 0, ptr %15, align 8
  call void @llvm.memset.p0.i64(ptr noundef nonnull align 8 dereferenceable(28) %5, i8 0, i64 28, i1 false)
  call void @llvm.memset.p0.i64(ptr noundef nonnull align 8 dereferenceable(28) %9, i8 0, i64 28, i1 false)
  %16 = load ptr, ptr %0, align 8
  %17 = load ptr, ptr %16, align 8
  %18 = getelementptr inbounds i8, ptr %17, i64 56
  %19 = load ptr, ptr %18, align 8
  %20 = invoke noundef i32 %19(ptr noundef nonnull align 8 dereferenceable(208) %16, ptr noundef nonnull align 8 dereferenceable(72) %1, ptr noundef nonnull align 8 dereferenceable(72) %5, ptr noundef nonnull align 8 dereferenceable(64) %3)
          to label %21 unwind label %63

21:                                               ; preds = %4
  %22 = invoke noalias noundef nonnull dereferenceable(72) ptr @_Znwm(i64 noundef 72) #24
          to label %23 unwind label %63

23:                                               ; preds = %21
  %24 = load ptr, ptr %5, align 8
  store ptr %24, ptr %22, align 8
  %25 = getelementptr inbounds nuw i8, ptr %22, i64 8
  %26 = load ptr, ptr %6, align 8
  store ptr %26, ptr %25, align 8
  %27 = getelementptr inbounds nuw i8, ptr %22, i64 16
  %28 = load i64, ptr %7, align 8
  store i64 %28, ptr %27, align 8
  %29 = getelementptr inbounds nuw i8, ptr %22, i64 24
  %30 = load i32, ptr %8, align 8
  store i32 %30, ptr %29, align 8
  %31 = getelementptr inbounds nuw i8, ptr %22, i64 32
  %32 = load ptr, ptr %9, align 8
  store ptr %32, ptr %31, align 8
  %33 = getelementptr inbounds nuw i8, ptr %22, i64 40
  %34 = load i32, ptr %10, align 8
  store i32 %34, ptr %33, align 8
  %35 = getelementptr inbounds nuw i8, ptr %22, i64 44
  %36 = load i32, ptr %11, align 4
  store i32 %36, ptr %35, align 4
  %37 = getelementptr inbounds nuw i8, ptr %22, i64 48
  %38 = load i32, ptr %12, align 8
  store i32 %38, ptr %37, align 8
  %39 = getelementptr inbounds nuw i8, ptr %22, i64 52
  %40 = load i32, ptr %13, align 4
  store i32 %40, ptr %39, align 4
  %41 = getelementptr inbounds nuw i8, ptr %22, i64 56
  %42 = load i32, ptr %14, align 8
  store i32 %42, ptr %41, align 8
  %43 = getelementptr inbounds nuw i8, ptr %22, i64 64
  %44 = load i64, ptr %15, align 8
  store i64 %44, ptr %43, align 8
  %.not41 = icmp eq ptr %26, null
  br i1 %.not41, label %.thread, label %45

.thread:                                          ; preds = %23
  store ptr %22, ptr %2, align 8
  br label %59

45:                                               ; preds = %23
  %46 = atomicrmw add ptr %26, i32 1 acq_rel, align 4
  %.pre = load ptr, ptr %6, align 8
  store ptr %22, ptr %2, align 8
  %.not42 = icmp eq ptr %.pre, null
  br i1 %.not42, label %59, label %47

47:                                               ; preds = %45
  %48 = atomicrmw add ptr %.pre, i32 -1 acq_rel, align 4
  %49 = icmp eq i32 %48, 1
  br i1 %49, label %50, label %59

50:                                               ; preds = %47
  %51 = load ptr, ptr %9, align 8
  %.not43 = icmp eq ptr %51, null
  %52 = load ptr, ptr %5, align 8
  br i1 %.not43, label %57, label %53

53:                                               ; preds = %50
  %54 = load ptr, ptr %51, align 8
  %55 = getelementptr inbounds i8, ptr %54, i64 24
  %56 = load ptr, ptr %55, align 8
  invoke void %56(ptr noundef nonnull align 8 dereferenceable(8) %51, ptr noundef %52)
          to label %59 unwind label %60

57:                                               ; preds = %50
  %.not44 = icmp eq ptr %52, null
  br i1 %.not44, label %59, label %58

58:                                               ; preds = %57
  call void @free(ptr noundef nonnull %52) #26
  br label %59

59:                                               ; preds = %.thread, %53, %58, %57, %47, %45
  ret i32 %20

60:                                               ; preds = %53
  %61 = landingpad { ptr, i32 }
          catch ptr null
  %62 = extractvalue { ptr, i32 } %61, 0
  call void @__clang_call_terminate(ptr %62) #27
  unreachable

63:                                               ; preds = %21, %4
  %64 = landingpad { ptr, i32 }
          cleanup
  %65 = load ptr, ptr %6, align 8
  %.not = icmp eq ptr %65, null
  br i1 %.not, label %78, label %66

66:                                               ; preds = %63
  %67 = atomicrmw add ptr %65, i32 -1 acq_rel, align 4
  %68 = icmp eq i32 %67, 1
  br i1 %68, label %69, label %78

69:                                               ; preds = %66
  %70 = load ptr, ptr %9, align 8
  %.not39 = icmp eq ptr %70, null
  %71 = load ptr, ptr %5, align 8
  br i1 %.not39, label %76, label %72

72:                                               ; preds = %69
  %73 = load ptr, ptr %70, align 8
  %74 = getelementptr inbounds i8, ptr %73, i64 24
  %75 = load ptr, ptr %74, align 8
  invoke void %75(ptr noundef nonnull align 8 dereferenceable(8) %70, ptr noundef %71)
          to label %78 unwind label %79

76:                                               ; preds = %69
  %.not40 = icmp eq ptr %71, null
  br i1 %.not40, label %78, label %77

77:                                               ; preds = %76
  call void @free(ptr noundef nonnull %71) #26
  br label %78

78:                                               ; preds = %72, %77, %76, %66, %63
  resume { ptr, i32 } %64

79:                                               ; preds = %72
  %80 = landingpad { ptr, i32 }
          catch ptr null
  %81 = extractvalue { ptr, i32 } %80, 0
  call void @__clang_call_terminate(ptr %81) #27
  unreachable
}